; Function Attrs: nounwind uwtable
define void @bufferevent_setcb(ptr noundef captures(none) initializes((304, 336)) %0, ptr noundef %1, ptr noundef %2, ptr noundef %3, ptr noundef %4) local_unnamed_addr #0 {
  %6 = getelementptr inbounds nuw i8, ptr %0, i64 448
  %7 = load ptr, ptr %6, align 8
  %.not = icmp eq ptr %7, null
  br i1 %.not, label %.thread, label %12

.thread:                                          ; preds = %5
  %8 = getelementptr inbounds nuw i8, ptr %0, i64 304
  store ptr %1, ptr %8, align 8
  %9 = getelementptr inbounds nuw i8, ptr %0, i64 312
  store ptr %2, ptr %9, align 8
  %10 = getelementptr inbounds nuw i8, ptr %0, i64 320
  store ptr %3, ptr %10, align 8
  %11 = getelementptr inbounds nuw i8, ptr %0, i64 328
  store ptr %4, ptr %11, align 8
  br label %22

12:                                               ; preds = %5
  %13 = load ptr, ptr getelementptr inbounds nuw (i8, ptr @evthread_lock_fns_, i64 24), align 8
  %14 = tail call i32 %13(i32 noundef 0, ptr noundef nonnull %7) #7
  %.pre = load ptr, ptr %6, align 8
  %15 = getelementptr inbounds nuw i8, ptr %0, i64 304
  store ptr %1, ptr %15, align 8
  %16 = getelementptr inbounds nuw i8, ptr %0, i64 312
  store ptr %2, ptr %16, align 8
  %17 = getelementptr inbounds nuw i8, ptr %0, i64 320
  store ptr %3, ptr %17, align 8
  %18 = getelementptr inbounds nuw i8, ptr %0, i64 328
  store ptr %4, ptr %18, align 8
  %.not15 = icmp eq ptr %.pre, null
  br i1 %.not15, label %22, label %19

19:                                               ; preds = %12
  %20 = load ptr, ptr getelementptr inbounds nuw (i8, ptr @evthread_lock_fns_, i64 32), align 8
  %21 = tail call i32 %20(i32 noundef 0, ptr noundef nonnull %.pre) #7
  br label %22

22:                                               ; preds = %.thread, %19, %12
  ret void
}